; Function Attrs: mustprogress nofree norecurse nosync nounwind memory(readwrite, inaccessiblemem: none) uwtable
define void @_ZN10OpenSubdiv6v3_6_03Vtr8internal10Refinement31populateEdgeTagsFromParentFacesEv(ptr nocapture noundef nonnull readonly align 8 dereferenceable(504) %0) local_unnamed_addr #10 align 2 {
  %2 = getelementptr inbounds nuw i8, ptr %0, i64 44
  %3 = load i32, ptr %2, align 4
  %4 = icmp sgt i32 %3, 0
  br i1 %4, label %.lr.ph, label %._crit_edge

.lr.ph:                                           ; preds = %1
  %5 = getelementptr inbounds nuw i8, ptr %0, i64 68
  %6 = load i32, ptr %5, align 4
  %7 = add nsw i32 %3, %6
  %8 = getelementptr inbounds nuw i8, ptr %0, i64 16
  %9 = sext i32 %6 to i64
  %10 = sext i32 %7 to i64
  br label %11

11:                                               ; preds = %.lr.ph, %11
  %indvars.iv = phi i64 [ %9, %.lr.ph ], [ %indvars.iv.next, %11 ]
  %12 = load ptr, ptr %8, align 8
  %13 = getelementptr inbounds nuw i8, ptr %12, i64 240
  %14 = load ptr, ptr %13, align 8
  %15 = getelementptr inbounds %"struct.OpenSubdiv::v3_6_0::Vtr::internal::Level::ETag", ptr %14, i64 %indvars.iv
  store i8 0, ptr %15, align 1
  %indvars.iv.next = add nsw i64 %indvars.iv, 1
  %16 = icmp slt i64 %indvars.iv.next, %10
  br i1 %16, label %11, label %._crit_edge, !llvm.loop !67

._crit_edge:                                      ; preds = %11, %1
  ret void
}